; Function Attrs: mustprogress uwtable
define hidden void @_ZN17hint_macro_solver22display_quantifier_setERSoPK13obj_hashtableI10quantifierE(ptr noundef nonnull align 8 dereferenceable(8) %out, ptr nocapture noundef readonly %s) local_unnamed_addr #3 align 2 {
entry:
  %0 = load ptr, ptr %s, align 8
  %m_capacity.i = getelementptr inbounds i8, ptr %s, i64 8
  %1 = load i32, ptr %m_capacity.i, align 8
  %idx.ext.i = zext i32 %1 to i64
  %add.ptr.i = getelementptr inbounds %class.obj_hash_entry.100, ptr %0, i64 %idx.ext.i
  %cmp.not2.i.i.i = icmp eq i32 %1, 0
  br i1 %cmp.not2.i.i.i, label %_ZNK14core_hashtableI14obj_hash_entryI10quantifierE12obj_ptr_hashIS1_E6ptr_eqIS1_EE5beginEv.exit, label %land.rhs.i.i.i

land.rhs.i.i.i:                                   ; preds = %entry, %while.body.i.i.i
  %retval.sroa.0.0.i = phi ptr [ %incdec.ptr.i.i.i, %while.body.i.i.i ], [ %0, %entry ]
  %2 = load ptr, ptr %retval.sroa.0.0.i, align 8
  %switch.i.i.i = icmp ult ptr %2, inttoptr (i64 2 to ptr)
  br i1 %switch.i.i.i, label %while.body.i.i.i, label %_ZNK14core_hashtableI14obj_hash_entryI10quantifierE12obj_ptr_hashIS1_E6ptr_eqIS1_EE5beginEv.exit

while.body.i.i.i:                                 ; preds = %land.rhs.i.i.i
  %incdec.ptr.i.i.i = getelementptr inbounds i8, ptr %retval.sroa.0.0.i, i64 8
  %cmp.not.i.i.i = icmp eq ptr %incdec.ptr.i.i.i, %add.ptr.i
  br i1 %cmp.not.i.i.i, label %for.end, label %land.rhs.i.i.i, !llvm.loop !38

_ZNK14core_hashtableI14obj_hash_entryI10quantifierE12obj_ptr_hashIS1_E6ptr_eqIS1_EE5beginEv.exit: ; preds = %land.rhs.i.i.i, %entry
  %retval.sroa.0.1.i = phi ptr [ %0, %entry ], [ %retval.sroa.0.0.i, %land.rhs.i.i.i ]
  %cmp.i.not11 = icmp eq ptr %retval.sroa.0.1.i, %add.ptr.i
  br i1 %cmp.i.not11, label %for.end, label %for.body

for.body:                                         ; preds = %_ZNK14core_hashtableI14obj_hash_entryI10quantifierE12obj_ptr_hashIS1_E6ptr_eqIS1_EE5beginEv.exit, %_ZN14core_hashtableI14obj_hash_entryI10quantifierE12obj_ptr_hashIS1_E6ptr_eqIS1_EE8iteratorppEv.exit
  %__begin1.sroa.0.012 = phi ptr [ %__begin1.sroa.0.1, %_ZN14core_hashtableI14obj_hash_entryI10quantifierE12obj_ptr_hashIS1_E6ptr_eqIS1_EE8iteratorppEv.exit ], [ %retval.sroa.0.1.i, %_ZNK14core_hashtableI14obj_hash_entryI10quantifierE12obj_ptr_hashIS1_E6ptr_eqIS1_EE5beginEv.exit ]
  %3 = load ptr, ptr %__begin1.sroa.0.012, align 8
  %m_qid.i = getelementptr inbounds i8, ptr %3, i64 56
  %agg.tmp.sroa.0.0.copyload = load ptr, ptr %m_qid.i, align 8
  %4 = ptrtoint ptr %agg.tmp.sroa.0.0.copyload to i64
  %and.i = and i64 %4, 7
  %cmp.i8 = icmp eq i64 %and.i, 0
  br i1 %cmp.i8, label %if.then.i, label %if.else5.i

if.then.i:                                        ; preds = %for.body
  %tobool.not.i = icmp eq ptr %agg.tmp.sroa.0.0.copyload, null
  br i1 %tobool.not.i, label %if.else.i, label %if.then2.i

if.then2.i:                                       ; preds = %if.then.i
  %call.i = tail call noundef nonnull align 8 dereferenceable(8) ptr @_ZStlsISt11char_traitsIcEERSt13basic_ostreamIcT_ES5_PKc(ptr noundef nonnull align 8 dereferenceable(8) %out, ptr noundef nonnull %agg.tmp.sroa.0.0.copyload)
  br label %_ZlsRSo6symbol.exit

if.else.i:                                        ; preds = %if.then.i
  %call4.i = tail call noundef nonnull align 8 dereferenceable(8) ptr @_ZStlsISt11char_traitsIcEERSt13basic_ostreamIcT_ES5_PKc(ptr noundef nonnull align 8 dereferenceable(8) %out, ptr noundef nonnull @.str.10)
  br label %_ZlsRSo6symbol.exit

if.else5.i:                                       ; preds = %for.body
  %call6.i = tail call noundef nonnull align 8 dereferenceable(8) ptr @_ZStlsISt11char_traitsIcEERSt13basic_ostreamIcT_ES5_PKc(ptr noundef nonnull align 8 dereferenceable(8) %out, ptr noundef nonnull @.str.11)
  %shr.i = lshr i64 %4, 3
  %conv.i = trunc i64 %shr.i to i32
  %call8.i = tail call noundef nonnull align 8 dereferenceable(8) ptr @_ZNSolsEi(ptr noundef nonnull align 8 dereferenceable(8) %call6.i, i32 noundef %conv.i)
  br label %_ZlsRSo6symbol.exit

_ZlsRSo6symbol.exit:                              ; preds = %if.then2.i, %if.else.i, %if.else5.i
  %call6 = tail call noundef nonnull align 8 dereferenceable(8) ptr @_ZStlsISt11char_traitsIcEERSt13basic_ostreamIcT_ES5_PKc(ptr noundef nonnull align 8 dereferenceable(8) %out, ptr noundef nonnull @.str)
  %incdec.ptr.i = getelementptr inbounds i8, ptr %__begin1.sroa.0.012, i64 8
  %cmp.not2.i.i = icmp eq ptr %incdec.ptr.i, %add.ptr.i
  br i1 %cmp.not2.i.i, label %for.end, label %land.rhs.i.i

land.rhs.i.i:                                     ; preds = %_ZlsRSo6symbol.exit, %while.body.i.i
  %__begin1.sroa.0.1 = phi ptr [ %incdec.ptr.i.i, %while.body.i.i ], [ %incdec.ptr.i, %_ZlsRSo6symbol.exit ]
  %5 = load ptr, ptr %__begin1.sroa.0.1, align 8
  %switch.i.i = icmp ult ptr %5, inttoptr (i64 2 to ptr)
  br i1 %switch.i.i, label %while.body.i.i, label %_ZN14core_hashtableI14obj_hash_entryI10quantifierE12obj_ptr_hashIS1_E6ptr_eqIS1_EE8iteratorppEv.exit

while.body.i.i:                                   ; preds = %land.rhs.i.i
  %incdec.ptr.i.i = getelementptr inbounds i8, ptr %__begin1.sroa.0.1, i64 8
  %cmp.not.i.i = icmp eq ptr %incdec.ptr.i.i, %add.ptr.i
  br i1 %cmp.not.i.i, label %for.end, label %land.rhs.i.i, !llvm.loop !38

_ZN14core_hashtableI14obj_hash_entryI10quantifierE12obj_ptr_hashIS1_E6ptr_eqIS1_EE8iteratorppEv.exit: ; preds = %land.rhs.i.i
  %cmp.i.not = icmp eq ptr %__begin1.sroa.0.1, %add.ptr.i
  br i1 %cmp.i.not, label %for.end, label %for.body

for.end:                                          ; preds = %while.body.i.i.i, %_ZlsRSo6symbol.exit, %_ZN14core_hashtableI14obj_hash_entryI10quantifierE12obj_ptr_hashIS1_E6ptr_eqIS1_EE8iteratorppEv.exit, %while.body.i.i, %_ZNK14core_hashtableI14obj_hash_entryI10quantifierE12obj_ptr_hashIS1_E6ptr_eqIS1_EE5beginEv.exit
  %call8 = tail call noundef nonnull align 8 dereferenceable(8) ptr @_ZStlsISt11char_traitsIcEERSt13basic_ostreamIcT_ES5_PKc(ptr noundef nonnull align 8 dereferenceable(8) %out, ptr noundef nonnull @.str.1)
  ret void
}